target datalayout = "e-m:e-p270:32:32-p271:32:32-p272:64:64-i64:64-i128:128-f80:128-n8:16:32:64-S128"
target triple = "x86_64-pc-linux-gnu"

@hf_infiniband_SwitchInfo_LinearFDBCap = internal global i32 0, align 4
@hf_infiniband_SwitchInfo_RandomFDBCap = internal global i32 0, align 4
@hf_infiniband_SwitchInfo_MulticastFDBCap = internal global i32 0, align 4
@hf_infiniband_SwitchInfo_LinearFDBTop = internal global i32 0, align 4
@hf_infiniband_SwitchInfo_DefaultPort = internal global i32 0, align 4
@hf_infiniband_SwitchInfo_DefaultMulticastPrimaryPort = internal global i32 0, align 4
@hf_infiniband_SwitchInfo_DefaultMulticastNotPrimaryPort = internal global i32 0, align 4
@hf_infiniband_SwitchInfo_LifeTimeValue = internal global i32 0, align 4
@hf_infiniband_SwitchInfo_PortStateChange = internal global i32 0, align 4
@hf_infiniband_SwitchInfo_OptimizedSLtoVLMappingProgramming = internal global i32 0, align 4
@hf_infiniband_SwitchInfo_LIDsPerPort = internal global i32 0, align 4
@hf_infiniband_SwitchInfo_PartitionEnforcementCap = internal global i32 0, align 4
@hf_infiniband_SwitchInfo_InboundEnforcementCap = internal global i32 0, align 4
@hf_infiniband_SwitchInfo_OutboundEnforcementCap = internal global i32 0, align 4
@hf_infiniband_SwitchInfo_FilterRawInboundCap = internal global i32 0, align 4
@hf_infiniband_SwitchInfo_FilterRawOutboundCap = internal global i32 0, align 4
@hf_infiniband_SwitchInfo_EnhancedPortZero = internal global i32 0, align 4

; Function Attrs: null_pointer_is_valid sspstrong uwtable
define internal i32 @parse_SwitchInfo(ptr noundef %0, ptr noundef %1, ptr noundef %2) #0 {
  %4 = alloca i32, align 4
  %5 = alloca ptr, align 8
  %6 = alloca ptr, align 8
  %7 = alloca ptr, align 8
  %8 = alloca i32, align 4
  %9 = alloca ptr, align 8
  %10 = alloca i32, align 4
  store ptr %0, ptr %5, align 8
  store ptr %1, ptr %6, align 8
  store ptr %2, ptr %7, align 8
  call void @llvm.lifetime.start.p0(i64 4, ptr %8) #18
  %11 = load ptr, ptr %7, align 8
  %12 = load i32, ptr %11, align 4
  store i32 %12, ptr %8, align 4
  call void @llvm.lifetime.start.p0(i64 8, ptr %9) #18
  %13 = load ptr, ptr %5, align 8
  %14 = icmp ne ptr %13, null
  br i1 %14, label %18, label %15

15:                                               ; preds = %3
  %16 = load ptr, ptr %7, align 8
  %17 = load i32, ptr %16, align 4
  store i32 %17, ptr %4, align 4
  store i32 1, ptr %10, align 4
  br label %128

18:                                               ; preds = %3
  %19 = load ptr, ptr %5, align 8
  store ptr %19, ptr %9, align 8
  %20 = load ptr, ptr %9, align 8
  %21 = load i32, ptr @hf_infiniband_SwitchInfo_LinearFDBCap, align 4
  %22 = load ptr, ptr %6, align 8
  %23 = load i32, ptr %8, align 4
  %24 = call ptr @proto_tree_add_item(ptr noundef %20, i32 noundef %21, ptr noundef %22, i32 noundef %23, i32 noundef 2, i32 noundef 0)
  %25 = load i32, ptr %8, align 4
  %26 = add i32 %25, 2
  store i32 %26, ptr %8, align 4
  %27 = load ptr, ptr %9, align 8
  %28 = load i32, ptr @hf_infiniband_SwitchInfo_RandomFDBCap, align 4
  %29 = load ptr, ptr %6, align 8
  %30 = load i32, ptr %8, align 4
  %31 = call ptr @proto_tree_add_item(ptr noundef %27, i32 noundef %28, ptr noundef %29, i32 noundef %30, i32 noundef 2, i32 noundef 0)
  %32 = load i32, ptr %8, align 4
  %33 = add i32 %32, 2
  store i32 %33, ptr %8, align 4
  %34 = load ptr, ptr %9, align 8
  %35 = load i32, ptr @hf_infiniband_SwitchInfo_MulticastFDBCap, align 4
  %36 = load ptr, ptr %6, align 8
  %37 = load i32, ptr %8, align 4
  %38 = call ptr @proto_tree_add_item(ptr noundef %34, i32 noundef %35, ptr noundef %36, i32 noundef %37, i32 noundef 2, i32 noundef 0)
  %39 = load i32, ptr %8, align 4
  %40 = add i32 %39, 2
  store i32 %40, ptr %8, align 4
  %41 = load ptr, ptr %9, align 8
  %42 = load i32, ptr @hf_infiniband_SwitchInfo_LinearFDBTop, align 4
  %43 = load ptr, ptr %6, align 8
  %44 = load i32, ptr %8, align 4
  %45 = call ptr @proto_tree_add_item(ptr noundef %41, i32 noundef %42, ptr noundef %43, i32 noundef %44, i32 noundef 2, i32 noundef 0)
  %46 = load i32, ptr %8, align 4
  %47 = add i32 %46, 2
  store i32 %47, ptr %8, align 4
  %48 = load ptr, ptr %9, align 8
  %49 = load i32, ptr @hf_infiniband_SwitchInfo_DefaultPort, align 4
  %50 = load ptr, ptr %6, align 8
  %51 = load i32, ptr %8, align 4
  %52 = call ptr @proto_tree_add_item(ptr noundef %48, i32 noundef %49, ptr noundef %50, i32 noundef %51, i32 noundef 1, i32 noundef 0)
  %53 = load i32, ptr %8, align 4
  %54 = add i32 %53, 1
  store i32 %54, ptr %8, align 4
  %55 = load ptr, ptr %9, align 8
  %56 = load i32, ptr @hf_infiniband_SwitchInfo_DefaultMulticastPrimaryPort, align 4
  %57 = load ptr, ptr %6, align 8
  %58 = load i32, ptr %8, align 4
  %59 = call ptr @proto_tree_add_item(ptr noundef %55, i32 noundef %56, ptr noundef %57, i32 noundef %58, i32 noundef 1, i32 noundef 0)
  %60 = load i32, ptr %8, align 4
  %61 = add i32 %60, 1
  store i32 %61, ptr %8, align 4
  %62 = load ptr, ptr %9, align 8
  %63 = load i32, ptr @hf_infiniband_SwitchInfo_DefaultMulticastNotPrimaryPort, align 4
  %64 = load ptr, ptr %6, align 8
  %65 = load i32, ptr %8, align 4
  %66 = call ptr @proto_tree_add_item(ptr noundef %62, i32 noundef %63, ptr noundef %64, i32 noundef %65, i32 noundef 1, i32 noundef 0)
  %67 = load i32, ptr %8, align 4
  %68 = add i32 %67, 1
  store i32 %68, ptr %8, align 4
  %69 = load ptr, ptr %9, align 8
  %70 = load i32, ptr @hf_infiniband_SwitchInfo_LifeTimeValue, align 4
  %71 = load ptr, ptr %6, align 8
  %72 = load i32, ptr %8, align 4
  %73 = call ptr @proto_tree_add_item(ptr noundef %69, i32 noundef %70, ptr noundef %71, i32 noundef %72, i32 noundef 1, i32 noundef 0)
  %74 = load ptr, ptr %9, align 8
  %75 = load i32, ptr @hf_infiniband_SwitchInfo_PortStateChange, align 4
  %76 = load ptr, ptr %6, align 8
  %77 = load i32, ptr %8, align 4
  %78 = call ptr @proto_tree_add_item(ptr noundef %74, i32 noundef %75, ptr noundef %76, i32 noundef %77, i32 noundef 1, i32 noundef 0)
  %79 = load ptr, ptr %9, align 8
  %80 = load i32, ptr @hf_infiniband_SwitchInfo_OptimizedSLtoVLMappingProgramming, align 4
  %81 = load ptr, ptr %6, align 8
  %82 = load i32, ptr %8, align 4
  %83 = call ptr @proto_tree_add_item(ptr noundef %79, i32 noundef %80, ptr noundef %81, i32 noundef %82, i32 noundef 1, i32 noundef 0)
  %84 = load i32, ptr %8, align 4
  %85 = add i32 %84, 1
  store i32 %85, ptr %8, align 4
  %86 = load ptr, ptr %9, align 8
  %87 = load i32, ptr @hf_infiniband_SwitchInfo_LIDsPerPort, align 4
  %88 = load ptr, ptr %6, align 8
  %89 = load i32, ptr %8, align 4
  %90 = call ptr @proto_tree_add_item(ptr noundef %86, i32 noundef %87, ptr noundef %88, i32 noundef %89, i32 noundef 2, i32 noundef 0)
  %91 = load i32, ptr %8, align 4
  %92 = add i32 %91, 2
  store i32 %92, ptr %8, align 4
  %93 = load ptr, ptr %9, align 8
  %94 = load i32, ptr @hf_infiniband_SwitchInfo_PartitionEnforcementCap, align 4
  %95 = load ptr, ptr %6, align 8
  %96 = load i32, ptr %8, align 4
  %97 = call ptr @proto_tree_add_item(ptr noundef %93, i32 noundef %94, ptr noundef %95, i32 noundef %96, i32 noundef 2, i32 noundef 0)
  %98 = load i32, ptr %8, align 4
  %99 = add i32 %98, 2
  store i32 %99, ptr %8, align 4
  %100 = load ptr, ptr %9, align 8
  %101 = load i32, ptr @hf_infiniband_SwitchInfo_InboundEnforcementCap, align 4
  %102 = load ptr, ptr %6, align 8
  %103 = load i32, ptr %8, align 4
  %104 = call ptr @proto_tree_add_item(ptr noundef %100, i32 noundef %101, ptr noundef %102, i32 noundef %103, i32 noundef 1, i32 noundef 0)
  %105 = load ptr, ptr %9, align 8
  %106 = load i32, ptr @hf_infiniband_SwitchInfo_OutboundEnforcementCap, align 4
  %107 = load ptr, ptr %6, align 8
  %108 = load i32, ptr %8, align 4
  %109 = call ptr @proto_tree_add_item(ptr noundef %105, i32 noundef %106, ptr noundef %107, i32 noundef %108, i32 noundef 1, i32 noundef 0)
  %110 = load ptr, ptr %9, align 8
  %111 = load i32, ptr @hf_infiniband_SwitchInfo_FilterRawInboundCap, align 4
  %112 = load ptr, ptr %6, align 8
  %113 = load i32, ptr %8, align 4
  %114 = call ptr @proto_tree_add_item(ptr noundef %110, i32 noundef %111, ptr noundef %112, i32 noundef %113, i32 noundef 1, i32 noundef 0)
  %115 = load ptr, ptr %9, align 8
  %116 = load i32, ptr @hf_infiniband_SwitchInfo_FilterRawOutboundCap, align 4
  %117 = load ptr, ptr %6, align 8
  %118 = load i32, ptr %8, align 4
  %119 = call ptr @proto_tree_add_item(ptr noundef %115, i32 noundef %116, ptr noundef %117, i32 noundef %118, i32 noundef 1, i32 noundef 0)
  %120 = load ptr, ptr %9, align 8
  %121 = load i32, ptr @hf_infiniband_SwitchInfo_EnhancedPortZero, align 4
  %122 = load ptr, ptr %6, align 8
  %123 = load i32, ptr %8, align 4
  %124 = call ptr @proto_tree_add_item(ptr noundef %120, i32 noundef %121, ptr noundef %122, i32 noundef %123, i32 noundef 1, i32 noundef 0)
  %125 = load i32, ptr %8, align 4
  %126 = add i32 %125, 1
  store i32 %126, ptr %8, align 4
  %127 = load i32, ptr %8, align 4
  store i32 %127, ptr %4, align 4
  store i32 1, ptr %10, align 4
  br label %128

128:                                              ; preds = %18, %15
  call void @llvm.lifetime.end.p0(i64 8, ptr %9) #18
  call void @llvm.lifetime.end.p0(i64 4, ptr %8) #18
  %129 = load i32, ptr %4, align 4
  ret i32 %129
}