; Function Attrs: null_pointer_is_valid sspstrong uwtable
define internal fastcc void @parse_SwitchInfo(ptr noundef %0, ptr noundef %1, i32 %.0.val) unnamed_addr #0 {
  %.not = icmp eq ptr %0, null
  br i1 %.not, label %48, label %3

3:                                                ; preds = %2
  %4 = load i32, ptr @hf_infiniband_SwitchInfo_LinearFDBCap, align 4
  %5 = tail call ptr @proto_tree_add_item(ptr noundef nonnull %0, i32 noundef %4, ptr noundef %1, i32 noundef %.0.val, i32 noundef 2, i32 noundef 0)
  %6 = add i32 %.0.val, 2
  %7 = load i32, ptr @hf_infiniband_SwitchInfo_RandomFDBCap, align 4
  %8 = tail call ptr @proto_tree_add_item(ptr noundef nonnull %0, i32 noundef %7, ptr noundef %1, i32 noundef %6, i32 noundef 2, i32 noundef 0)
  %9 = add i32 %.0.val, 4
  %10 = load i32, ptr @hf_infiniband_SwitchInfo_MulticastFDBCap, align 4
  %11 = tail call ptr @proto_tree_add_item(ptr noundef nonnull %0, i32 noundef %10, ptr noundef %1, i32 noundef %9, i32 noundef 2, i32 noundef 0)
  %12 = add i32 %.0.val, 6
  %13 = load i32, ptr @hf_infiniband_SwitchInfo_LinearFDBTop, align 4
  %14 = tail call ptr @proto_tree_add_item(ptr noundef nonnull %0, i32 noundef %13, ptr noundef %1, i32 noundef %12, i32 noundef 2, i32 noundef 0)
  %15 = add i32 %.0.val, 8
  %16 = load i32, ptr @hf_infiniband_SwitchInfo_DefaultPort, align 4
  %17 = tail call ptr @proto_tree_add_item(ptr noundef nonnull %0, i32 noundef %16, ptr noundef %1, i32 noundef %15, i32 noundef 1, i32 noundef 0)
  %18 = add i32 %.0.val, 9
  %19 = load i32, ptr @hf_infiniband_SwitchInfo_DefaultMulticastPrimaryPort, align 4
  %20 = tail call ptr @proto_tree_add_item(ptr noundef nonnull %0, i32 noundef %19, ptr noundef %1, i32 noundef %18, i32 noundef 1, i32 noundef 0)
  %21 = add i32 %.0.val, 10
  %22 = load i32, ptr @hf_infiniband_SwitchInfo_DefaultMulticastNotPrimaryPort, align 4
  %23 = tail call ptr @proto_tree_add_item(ptr noundef nonnull %0, i32 noundef %22, ptr noundef %1, i32 noundef %21, i32 noundef 1, i32 noundef 0)
  %24 = add i32 %.0.val, 11
  %25 = load i32, ptr @hf_infiniband_SwitchInfo_LifeTimeValue, align 4
  %26 = tail call ptr @proto_tree_add_item(ptr noundef nonnull %0, i32 noundef %25, ptr noundef %1, i32 noundef %24, i32 noundef 1, i32 noundef 0)
  %27 = load i32, ptr @hf_infiniband_SwitchInfo_PortStateChange, align 4
  %28 = tail call ptr @proto_tree_add_item(ptr noundef nonnull %0, i32 noundef %27, ptr noundef %1, i32 noundef %24, i32 noundef 1, i32 noundef 0)
  %29 = load i32, ptr @hf_infiniband_SwitchInfo_OptimizedSLtoVLMappingProgramming, align 4
  %30 = tail call ptr @proto_tree_add_item(ptr noundef nonnull %0, i32 noundef %29, ptr noundef %1, i32 noundef %24, i32 noundef 1, i32 noundef 0)
  %31 = add i32 %.0.val, 12
  %32 = load i32, ptr @hf_infiniband_SwitchInfo_LIDsPerPort, align 4
  %33 = tail call ptr @proto_tree_add_item(ptr noundef nonnull %0, i32 noundef %32, ptr noundef %1, i32 noundef %31, i32 noundef 2, i32 noundef 0)
  %34 = add i32 %.0.val, 14
  %35 = load i32, ptr @hf_infiniband_SwitchInfo_PartitionEnforcementCap, align 4
  %36 = tail call ptr @proto_tree_add_item(ptr noundef nonnull %0, i32 noundef %35, ptr noundef %1, i32 noundef %34, i32 noundef 2, i32 noundef 0)
  %37 = add i32 %.0.val, 16
  %38 = load i32, ptr @hf_infiniband_SwitchInfo_InboundEnforcementCap, align 4
  %39 = tail call ptr @proto_tree_add_item(ptr noundef nonnull %0, i32 noundef %38, ptr noundef %1, i32 noundef %37, i32 noundef 1, i32 noundef 0)
  %40 = load i32, ptr @hf_infiniband_SwitchInfo_OutboundEnforcementCap, align 4
  %41 = tail call ptr @proto_tree_add_item(ptr noundef nonnull %0, i32 noundef %40, ptr noundef %1, i32 noundef %37, i32 noundef 1, i32 noundef 0)
  %42 = load i32, ptr @hf_infiniband_SwitchInfo_FilterRawInboundCap, align 4
  %43 = tail call ptr @proto_tree_add_item(ptr noundef nonnull %0, i32 noundef %42, ptr noundef %1, i32 noundef %37, i32 noundef 1, i32 noundef 0)
  %44 = load i32, ptr @hf_infiniband_SwitchInfo_FilterRawOutboundCap, align 4
  %45 = tail call ptr @proto_tree_add_item(ptr noundef nonnull %0, i32 noundef %44, ptr noundef %1, i32 noundef %37, i32 noundef 1, i32 noundef 0)
  %46 = load i32, ptr @hf_infiniband_SwitchInfo_EnhancedPortZero, align 4
  %47 = tail call ptr @proto_tree_add_item(ptr noundef nonnull %0, i32 noundef %46, ptr noundef %1, i32 noundef %37, i32 noundef 1, i32 noundef 0)
  br label %48

48:                                               ; preds = %2, %3
  ret void
}